target datalayout = "e-m:e-p270:32:32-p271:32:32-p272:64:64-i64:64-i128:128-f80:128-n8:16:32:64-S128"
target triple = "x86_64-unknown-linux-gnu"

%struct.SCSISense = type { i8, i8, i8 }
%struct.VirtIOSCSICommon = type { %struct.VirtIODevice, %struct.VirtIOSCSIConf, i32, i32, ptr, ptr, ptr }
%struct.VirtIODevice = type { %struct.DeviceState, ptr, i8, i8, i16, i64, i64, i64, i64, ptr, i16, i32, i32, ptr, %struct.MemoryListener, i16, i8, i8, i8, i8, i8, i8, i8, i8, i8, ptr, ptr, i8, i8, ptr, ptr, %union.anon.1, %struct.EventNotifier, i8 }
%struct.DeviceState = type { %struct.Object, ptr, ptr, i8, i8, i64, ptr, i32, i8, ptr, %struct.NamedGPIOListHead, %struct.NamedClockListHead, %struct.BusStateHead, i32, i32, i32, %struct.ResettableState, ptr, %struct.MemReentrancyGuard }
%struct.Object = type { ptr, ptr, ptr, i32, ptr }
%struct.NamedGPIOListHead = type { ptr }
%struct.NamedClockListHead = type { ptr }
%struct.BusStateHead = type { ptr }
%struct.ResettableState = type { i32, i8, i8 }
%struct.MemReentrancyGuard = type { i8 }
%struct.MemoryListener = type { ptr, ptr, ptr, ptr, ptr, ptr, ptr, ptr, ptr, ptr, ptr, ptr, ptr, ptr, ptr, ptr, ptr, i32, ptr, ptr, %union.anon, %union.anon.0 }
%union.anon = type { %struct.QTailQLink }
%struct.QTailQLink = type { ptr, ptr }
%union.anon.0 = type { %struct.QTailQLink }
%union.anon.1 = type { %struct.QTailQLink }
%struct.EventNotifier = type { i32, i32, i8 }
%struct.VirtIOSCSIConf = type { i32, i32, i8, i32, i32, ptr, ptr, %struct.CharBackend, i32, ptr }
%struct.CharBackend = type { ptr, ptr, ptr, ptr, ptr, ptr, i32, i32 }
%struct.VirtIOSCSI = type { %struct.VirtIOSCSICommon, %struct.SCSIBus, i32, i8, ptr, %union.anon.3, ptr, i8, i8, i8, i8, i32 }
%struct.SCSIBus = type { %struct.BusState, i32, %struct.SCSISense, ptr, i32 }
%struct.BusState = type { %struct.Object, ptr, ptr, ptr, i32, i8, i8, i32, %union.BusChildHead, %struct.BusStateEntry, %struct.ResettableState }
%union.BusChildHead = type { %struct.QTailQLink }
%struct.BusStateEntry = type { ptr, ptr }
%union.anon.3 = type { %struct.QTailQLink }
%struct.VirtIOSCSIReq = type <{ %struct.VirtQueueElement, ptr, ptr, %struct.QEMUSGList, %struct.QEMUIOVector, %union.anon.6, i32, [4 x i8], ptr, i64, i32, %union.anon.7, %union.anon.8, [4 x i8] }>
%struct.VirtQueueElement = type { i32, i32, i32, i32, i32, ptr, ptr, ptr, ptr }
%struct.QEMUSGList = type { ptr, i32, i32, i64, ptr, ptr }
%struct.QEMUIOVector = type { ptr, i32, %union.anon.4 }
%union.anon.4 = type { %struct.anon }
%struct.anon = type { i32, %struct.iovec }
%struct.iovec = type { ptr, i64 }
%union.anon.6 = type { %struct.QTailQLink }
%union.anon.7 = type { %struct.virtio_scsi_event }
%struct.virtio_scsi_event = type { i32, [8 x i8], i32 }
%union.anon.8 = type { %struct.virtio_scsi_ctrl_tmf_req }
%struct.virtio_scsi_ctrl_tmf_req = type { i32, i32, [8 x i8], i64 }
%struct.virtio_scsi_ctrl_tmf_resp = type { i8 }

@.str = private unnamed_addr constant [30 x i8] c"../qemu/hw/scsi/virtio-scsi.c\00", align 1
@.str.32 = private unnamed_addr constant [22 x i8] c"qemu_in_main_thread()\00", align 1
@__PRETTY_FUNCTION__.virtio_scsi_reset_tmf_bh = private unnamed_addr constant [44 x i8] c"void virtio_scsi_reset_tmf_bh(VirtIOSCSI *)\00", align 1

; Function Attrs: nounwind sspstrong uwtable
define internal void @virtio_scsi_release(ptr noundef %s) #0 {
entry:
  %s.addr = alloca ptr, align 8
  store ptr %s, ptr %s.addr, align 8
  %0 = load ptr, ptr %s.addr, align 8
  %ctx = getelementptr inbounds %struct.VirtIOSCSI, ptr %0, i32 0, i32 6
  %1 = load ptr, ptr %ctx, align 8
  %tobool = icmp ne ptr %1, null
  br i1 %tobool, label %if.then, label %if.end

if.then:                                          ; preds = %entry
  %2 = load ptr, ptr %s.addr, align 8
  %ctx1 = getelementptr inbounds %struct.VirtIOSCSI, ptr %2, i32 0, i32 6
  %3 = load ptr, ptr %ctx1, align 8
  call void @aio_context_release(ptr noundef %3)
  br label %if.end

if.end:                                           ; preds = %if.then, %entry
  ret void
}

; Function Attrs: nounwind sspstrong uwtable
define internal void @virtio_scsi_acquire(ptr noundef %s) #0 {
entry:
  %s.addr = alloca ptr, align 8
  store ptr %s, ptr %s.addr, align 8
  %0 = load ptr, ptr %s.addr, align 8
  %ctx = getelementptr inbounds %struct.VirtIOSCSI, ptr %0, i32 0, i32 6
  %1 = load ptr, ptr %ctx, align 8
  %tobool = icmp ne ptr %1, null
  br i1 %tobool, label %if.then, label %if.end

if.then:                                          ; preds = %entry
  %2 = load ptr, ptr %s.addr, align 8
  %ctx1 = getelementptr inbounds %struct.VirtIOSCSI, ptr %2, i32 0, i32 6
  %3 = load ptr, ptr %ctx1, align 8
  call void @aio_context_acquire(ptr noundef %3)
  br label %if.end

if.end:                                           ; preds = %if.then, %entry
  ret void
}

; Function Attrs: nounwind sspstrong uwtable
define internal void @virtio_scsi_reset_tmf_bh(ptr noundef %s) #0 {
entry:
  %s.addr = alloca ptr, align 8
  %req = alloca ptr, align 8
  %tmp = alloca ptr, align 8
  store ptr %s, ptr %s.addr, align 8
  br label %do.body

do.body:                                          ; preds = %entry
  %call = call zeroext i1 @qemu_in_main_thread()
  br i1 %call, label %if.then, label %if.else

if.then:                                          ; preds = %do.body
  br label %if.end

if.else:                                          ; preds = %do.body
  call void @__assert_fail(ptr noundef @.str.32, ptr noundef @.str, i32 noundef 380, ptr noundef @__PRETTY_FUNCTION__.virtio_scsi_reset_tmf_bh) #11
  unreachable

if.end:                                           ; preds = %if.then
  br label %do.end

do.end:                                           ; preds = %if.end
  %0 = load ptr, ptr %s.addr, align 8
  call void @virtio_scsi_acquire(ptr noundef %0)
  %1 = load ptr, ptr %s.addr, align 8
  %tmf_bh = getelementptr inbounds %struct.VirtIOSCSI, ptr %1, i32 0, i32 4
  %2 = load ptr, ptr %tmf_bh, align 8
  %tobool = icmp ne ptr %2, null
  br i1 %tobool, label %if.then1, label %if.end4

if.then1:                                         ; preds = %do.end
  %3 = load ptr, ptr %s.addr, align 8
  %tmf_bh2 = getelementptr inbounds %struct.VirtIOSCSI, ptr %3, i32 0, i32 4
  %4 = load ptr, ptr %tmf_bh2, align 8
  call void @qemu_bh_delete(ptr noundef %4)
  %5 = load ptr, ptr %s.addr, align 8
  %tmf_bh3 = getelementptr inbounds %struct.VirtIOSCSI, ptr %5, i32 0, i32 4
  store ptr null, ptr %tmf_bh3, align 8
  br label %if.end4

if.end4:                                          ; preds = %if.then1, %do.end
  %6 = load ptr, ptr %s.addr, align 8
  %tmf_bh_list = getelementptr inbounds %struct.VirtIOSCSI, ptr %6, i32 0, i32 5
  %7 = load ptr, ptr %tmf_bh_list, align 8
  store ptr %7, ptr %req, align 8
  br label %for.cond

for.cond:                                         ; preds = %for.inc, %if.end4
  %8 = load ptr, ptr %req, align 8
  %tobool5 = icmp ne ptr %8, null
  br i1 %tobool5, label %land.rhs, label %land.end

land.rhs:                                         ; preds = %for.cond
  %9 = load ptr, ptr %req, align 8
  %next = getelementptr inbounds %struct.VirtIOSCSIReq, ptr %9, i32 0, i32 5
  %10 = load ptr, ptr %next, align 8
  store ptr %10, ptr %tmp, align 8
  br label %land.end

land.end:                                         ; preds = %land.rhs, %for.cond
  %11 = phi i1 [ false, %for.cond ], [ true, %land.rhs ]
  br i1 %11, label %for.body, label %for.end

for.body:                                         ; preds = %land.end
  br label %do.body6

do.body6:                                         ; preds = %for.body
  %12 = load ptr, ptr %req, align 8
  %next7 = getelementptr inbounds %struct.VirtIOSCSIReq, ptr %12, i32 0, i32 5
  %13 = load ptr, ptr %next7, align 8
  %cmp = icmp ne ptr %13, null
  br i1 %cmp, label %if.then8, label %if.else13

if.then8:                                         ; preds = %do.body6
  %14 = load ptr, ptr %req, align 8
  %next9 = getelementptr inbounds %struct.VirtIOSCSIReq, ptr %14, i32 0, i32 5
  %tql_prev = getelementptr inbounds %struct.QTailQLink, ptr %next9, i32 0, i32 1
  %15 = load ptr, ptr %tql_prev, align 8
  %16 = load ptr, ptr %req, align 8
  %next10 = getelementptr inbounds %struct.VirtIOSCSIReq, ptr %16, i32 0, i32 5
  %17 = load ptr, ptr %next10, align 8
  %next11 = getelementptr inbounds %struct.VirtIOSCSIReq, ptr %17, i32 0, i32 5
  %tql_prev12 = getelementptr inbounds %struct.QTailQLink, ptr %next11, i32 0, i32 1
  store ptr %15, ptr %tql_prev12, align 8
  br label %if.end18

if.else13:                                        ; preds = %do.body6
  %18 = load ptr, ptr %req, align 8
  %next14 = getelementptr inbounds %struct.VirtIOSCSIReq, ptr %18, i32 0, i32 5
  %tql_prev15 = getelementptr inbounds %struct.QTailQLink, ptr %next14, i32 0, i32 1
  %19 = load ptr, ptr %tql_prev15, align 8
  %20 = load ptr, ptr %s.addr, align 8
  %tmf_bh_list16 = getelementptr inbounds %struct.VirtIOSCSI, ptr %20, i32 0, i32 5
  %tql_prev17 = getelementptr inbounds %struct.QTailQLink, ptr %tmf_bh_list16, i32 0, i32 1
  store ptr %19, ptr %tql_prev17, align 8
  br label %if.end18

if.end18:                                         ; preds = %if.else13, %if.then8
  %21 = load ptr, ptr %req, align 8
  %next19 = getelementptr inbounds %struct.VirtIOSCSIReq, ptr %21, i32 0, i32 5
  %22 = load ptr, ptr %next19, align 8
  %23 = load ptr, ptr %req, align 8
  %next20 = getelementptr inbounds %struct.VirtIOSCSIReq, ptr %23, i32 0, i32 5
  %tql_prev21 = getelementptr inbounds %struct.QTailQLink, ptr %next20, i32 0, i32 1
  %24 = load ptr, ptr %tql_prev21, align 8
  %tql_next = getelementptr inbounds %struct.QTailQLink, ptr %24, i32 0, i32 0
  store ptr %22, ptr %tql_next, align 8
  %25 = load ptr, ptr %req, align 8
  %next22 = getelementptr inbounds %struct.VirtIOSCSIReq, ptr %25, i32 0, i32 5
  %tql_prev23 = getelementptr inbounds %struct.QTailQLink, ptr %next22, i32 0, i32 1
  store ptr null, ptr %tql_prev23, align 8
  %26 = load ptr, ptr %req, align 8
  %next24 = getelementptr inbounds %struct.VirtIOSCSIReq, ptr %26, i32 0, i32 5
  %tql_next25 = getelementptr inbounds %struct.QTailQLink, ptr %next24, i32 0, i32 0
  store ptr null, ptr %tql_next25, align 8
  %27 = load ptr, ptr %req, align 8
  %next26 = getelementptr inbounds %struct.VirtIOSCSIReq, ptr %27, i32 0, i32 5
  store ptr null, ptr %next26, align 8
  br label %do.end27

do.end27:                                         ; preds = %if.end18
  %28 = load ptr, ptr %req, align 8
  %resp = getelementptr inbounds %struct.VirtIOSCSIReq, ptr %28, i32 0, i32 11
  %response = getelementptr inbounds %struct.virtio_scsi_ctrl_tmf_resp, ptr %resp, i32 0, i32 0
  store i8 7, ptr %response, align 4
  %29 = load ptr, ptr %req, align 8
  call void @virtio_scsi_complete_req(ptr noundef %29)
  br label %for.inc

for.inc:                                          ; preds = %do.end27
  %30 = load ptr, ptr %tmp, align 8
  store ptr %30, ptr %req, align 8
  br label %for.cond, !llvm.loop !25

for.end:                                          ; preds = %land.end
  %31 = load ptr, ptr %s.addr, align 8
  call void @virtio_scsi_release(ptr noundef %31)
  ret void
}