; Function Attrs: nounwind sspstrong uwtable
define internal fastcc void @virtio_scsi_reset_tmf_bh(ptr noundef captures(none) %s) unnamed_addr #0 {
entry:
  %call = tail call zeroext i1 @qemu_in_main_thread() #13
  br i1 %call, label %do.end, label %if.else

if.else:                                          ; preds = %entry
  tail call void @__assert_fail(ptr noundef nonnull @.str.32, ptr noundef nonnull @.str, i32 noundef 380, ptr noundef nonnull @__PRETTY_FUNCTION__.virtio_scsi_reset_tmf_bh) #15
  unreachable

do.end:                                           ; preds = %entry
  %0 = getelementptr i8, ptr %s, i64 840
  %s.val = load ptr, ptr %0, align 8
  %tobool.not.i = icmp eq ptr %s.val, null
  br i1 %tobool.not.i, label %virtio_scsi_acquire.exit, label %if.then.i

if.then.i:                                        ; preds = %do.end
  tail call void @aio_context_acquire(ptr noundef nonnull %s.val) #13
  br label %virtio_scsi_acquire.exit

virtio_scsi_acquire.exit:                         ; preds = %do.end, %if.then.i
  %tmf_bh = getelementptr inbounds nuw i8, ptr %s, i64 816
  %1 = load ptr, ptr %tmf_bh, align 8
  %tobool.not = icmp eq ptr %1, null
  br i1 %tobool.not, label %if.end4, label %if.then1

if.then1:                                         ; preds = %virtio_scsi_acquire.exit
  tail call void @qemu_bh_delete(ptr noundef nonnull %1) #13
  store ptr null, ptr %tmf_bh, align 8
  br label %if.end4

if.end4:                                          ; preds = %if.then1, %virtio_scsi_acquire.exit
  %tmf_bh_list = getelementptr inbounds nuw i8, ptr %s, i64 824
  %2 = load ptr, ptr %tmf_bh_list, align 8
  %tobool5.not23 = icmp eq ptr %2, null
  br i1 %tobool5.not23, label %for.end, label %land.rhs.lr.ph

land.rhs.lr.ph:                                   ; preds = %if.end4
  %tql_prev17 = getelementptr inbounds nuw i8, ptr %s, i64 832
  br label %land.rhs

land.rhs:                                         ; preds = %land.rhs.lr.ph, %if.end18
  %req.024 = phi ptr [ %2, %land.rhs.lr.ph ], [ %3, %if.end18 ]
  %next = getelementptr inbounds nuw i8, ptr %req.024, i64 152
  %3 = load ptr, ptr %next, align 8
  %cmp.not = icmp eq ptr %3, null
  %tql_prev15 = getelementptr inbounds nuw i8, ptr %req.024, i64 160
  %4 = load ptr, ptr %tql_prev15, align 8
  br i1 %cmp.not, label %if.else13, label %if.then8

if.then8:                                         ; preds = %land.rhs
  %tql_prev12 = getelementptr inbounds nuw i8, ptr %3, i64 160
  store ptr %4, ptr %tql_prev12, align 8
  br label %if.end18

if.else13:                                        ; preds = %land.rhs
  store ptr %4, ptr %tql_prev17, align 8
  br label %if.end18

if.end18:                                         ; preds = %if.else13, %if.then8
  %5 = load ptr, ptr %next, align 8
  store ptr %5, ptr %4, align 8
  %resp = getelementptr inbounds nuw i8, ptr %req.024, i64 196
  tail call void @llvm.memset.p0.i64(ptr noundef nonnull align 8 dereferenceable(16) %next, i8 0, i64 16, i1 false)
  store i8 7, ptr %resp, align 4
  tail call fastcc void @virtio_scsi_complete_req(ptr noundef nonnull %req.024)
  br i1 %cmp.not, label %for.end, label %land.rhs, !llvm.loop !25

for.end:                                          ; preds = %if.end18, %if.end4
  %s.val20 = load ptr, ptr %0, align 8
  %tobool.not.i21 = icmp eq ptr %s.val20, null
  br i1 %tobool.not.i21, label %virtio_scsi_release.exit, label %if.then.i22

if.then.i22:                                      ; preds = %for.end
  tail call void @aio_context_release(ptr noundef nonnull %s.val20) #13
  br label %virtio_scsi_release.exit

virtio_scsi_release.exit:                         ; preds = %for.end, %if.then.i22
  ret void
}